target datalayout = "e-m:e-p270:32:32-p271:32:32-p272:64:64-i64:64-i128:128-f80:128-n8:16:32:64-S128"
target triple = "x86_64-pc-linux-gnu"

%struct.DdManager = type { %struct.DdNode, ptr, ptr, ptr, ptr, ptr, ptr, ptr, i32, i32, double, double, double, i32, i32, i32, i32, i32, i32, ptr, ptr, %struct.DdSubtable, i32, i32, i32, i32, i32, i32, i32, double, i32, i32, i32, ptr, i64, double, i32, ptr, ptr, ptr, ptr, ptr, ptr, ptr, i32, ptr, ptr, ptr, ptr, ptr, ptr, i32, i32, i32, double, i32, i32, i32, i32, double, double, i32, i32, i32, i32, i32, i32, i32, i32, i32, ptr, ptr, i32, i32, i32, i32, i32, i32, ptr, ptr, ptr, ptr, ptr, ptr, ptr, ptr, i32, i64, i64, i64, i32, i64, i64, double, double, double, double, double, double, i32, ptr, ptr, i64 }
%struct.DdNode = type { i32, i32, ptr, %union.anon.1, i64 }
%union.anon.1 = type { %struct.DdChildren }
%struct.DdChildren = type { ptr, ptr }
%struct.DdSubtable = type { ptr, i32, i32, i32, i32, i32, i32, i32, i32, i32, i32, i32 }

@.str = private unnamed_addr constant [3 x i8] c"%c\00", align 1
@.str.9 = private unnamed_addr constant [2 x i8] c"-\00", align 1
@.str.10 = private unnamed_addr constant [8 x i8] c" : %2d\0A\00", align 1

; Function Attrs: nounwind uwtable
define internal i32 @Extra_WordCountOnes(i32 noundef %0) #0 {
  %2 = alloca i32, align 4
  store i32 %0, ptr %2, align 4
  %3 = load i32, ptr %2, align 4
  %4 = and i32 %3, 1431655765
  %5 = load i32, ptr %2, align 4
  %6 = lshr i32 %5, 1
  %7 = and i32 %6, 1431655765
  %8 = add i32 %4, %7
  store i32 %8, ptr %2, align 4
  %9 = load i32, ptr %2, align 4
  %10 = and i32 %9, 858993459
  %11 = load i32, ptr %2, align 4
  %12 = lshr i32 %11, 2
  %13 = and i32 %12, 858993459
  %14 = add i32 %10, %13
  store i32 %14, ptr %2, align 4
  %15 = load i32, ptr %2, align 4
  %16 = and i32 %15, 252645135
  %17 = load i32, ptr %2, align 4
  %18 = lshr i32 %17, 4
  %19 = and i32 %18, 252645135
  %20 = add i32 %16, %19
  store i32 %20, ptr %2, align 4
  %21 = load i32, ptr %2, align 4
  %22 = and i32 %21, 16711935
  %23 = load i32, ptr %2, align 4
  %24 = lshr i32 %23, 8
  %25 = and i32 %24, 16711935
  %26 = add i32 %22, %25
  store i32 %26, ptr %2, align 4
  %27 = load i32, ptr %2, align 4
  %28 = and i32 %27, 65535
  %29 = load i32, ptr %2, align 4
  %30 = lshr i32 %29, 16
  %31 = add i32 %28, %30
  ret i32 %31
}

; Function Attrs: nounwind uwtable
define void @Abc_NtkExploreCofs(ptr noundef %0, ptr noundef %1, ptr noundef %2, i32 noundef %3, i32 noundef %4) #0 {
  %6 = alloca ptr, align 8
  %7 = alloca ptr, align 8
  %8 = alloca ptr, align 8
  %9 = alloca i32, align 4
  %10 = alloca i32, align 4
  %11 = alloca ptr, align 8
  %12 = alloca ptr, align 8
  %13 = alloca [32 x ptr], align 16
  %14 = alloca i32, align 4
  %15 = alloca i32, align 4
  %16 = alloca i32, align 4
  %17 = alloca i32, align 4
  %18 = alloca i32, align 4
  store ptr %0, ptr %6, align 8
  store ptr %1, ptr %7, align 8
  store ptr %2, ptr %8, align 8
  store i32 %3, ptr %9, align 4
  store i32 %4, ptr %10, align 4
  %19 = load ptr, ptr %6, align 8
  %20 = getelementptr inbounds %struct.DdManager, ptr %19, i32 0, i32 15
  %21 = load i32, ptr %20, align 8
  %22 = call ptr @Cudd_Init(i32 noundef %21, i32 noundef 0, i32 noundef 256, i32 noundef 262144, i64 noundef 0)
  store ptr %22, ptr %11, align 8
  %23 = load ptr, ptr %11, align 8
  %24 = load ptr, ptr %6, align 8
  %25 = getelementptr inbounds %struct.DdManager, ptr %24, i32 0, i32 39
  %26 = load ptr, ptr %25, align 8
  %27 = call i32 @Cudd_ShuffleHeap(ptr noundef %23, ptr noundef %26)
  %28 = load ptr, ptr %6, align 8
  %29 = load ptr, ptr %11, align 8
  %30 = load ptr, ptr %7, align 8
  %31 = call ptr @Cudd_bddTransfer(ptr noundef %28, ptr noundef %29, ptr noundef %30)
  store ptr %31, ptr %12, align 8
  %32 = load ptr, ptr %12, align 8
  call void @Cudd_Ref(ptr noundef %32)
  store i32 0, ptr %14, align 4
  br label %33

33:                                               ; preds = %114, %5
  %34 = load i32, ptr %14, align 4
  %35 = load i32, ptr %9, align 4
  %36 = shl i32 1, %35
  %37 = icmp slt i32 %34, %36
  br i1 %37, label %38, label %117

38:                                               ; preds = %33
  %39 = load i32, ptr %14, align 4
  %40 = call i32 @Extra_WordCountOnes(i32 noundef %39)
  store i32 %40, ptr %18, align 4
  %41 = load i32, ptr %18, align 4
  %42 = load i32, ptr %10, align 4
  %43 = icmp ne i32 %41, %42
  br i1 %43, label %44, label %55

44:                                               ; preds = %38
  %45 = load i32, ptr %18, align 4
  %46 = load i32, ptr %10, align 4
  %47 = sub nsw i32 %46, 1
  %48 = icmp ne i32 %45, %47
  br i1 %48, label %49, label %55

49:                                               ; preds = %44
  %50 = load i32, ptr %18, align 4
  %51 = load i32, ptr %10, align 4
  %52 = sub nsw i32 %51, 2
  %53 = icmp ne i32 %50, %52
  br i1 %53, label %54, label %55

54:                                               ; preds = %49
  br label %114

55:                                               ; preds = %49, %44, %38
  store i32 0, ptr %15, align 4
  store i32 0, ptr %16, align 4
  br label %56

56:                                               ; preds = %79, %55
  %57 = load i32, ptr %15, align 4
  %58 = load i32, ptr %9, align 4
  %59 = icmp slt i32 %57, %58
  br i1 %59, label %60, label %82

60:                                               ; preds = %56
  %61 = load i32, ptr %14, align 4
  %62 = load i32, ptr %15, align 4
  %63 = shl i32 1, %62
  %64 = and i32 %61, %63
  %65 = icmp eq i32 %64, 0
  br i1 %65, label %66, label %67

66:                                               ; preds = %60
  br label %79

67:                                               ; preds = %60
  %68 = load ptr, ptr %11, align 8
  %69 = getelementptr inbounds %struct.DdManager, ptr %68, i32 0, i32 41
  %70 = load ptr, ptr %69, align 8
  %71 = load i32, ptr %15, align 4
  %72 = sext i32 %71 to i64
  %73 = getelementptr inbounds ptr, ptr %70, i64 %72
  %74 = load ptr, ptr %73, align 8
  %75 = load i32, ptr %16, align 4
  %76 = add nsw i32 %75, 1
  store i32 %76, ptr %16, align 4
  %77 = sext i32 %75 to i64
  %78 = getelementptr inbounds [32 x ptr], ptr %13, i64 0, i64 %77
  store ptr %74, ptr %78, align 8
  br label %79

79:                                               ; preds = %67, %66
  %80 = load i32, ptr %15, align 4
  %81 = add nsw i32 %80, 1
  store i32 %81, ptr %15, align 4
  br label %56, !llvm.loop !44

82:                                               ; preds = %56
  %83 = load ptr, ptr %11, align 8
  %84 = load ptr, ptr %12, align 8
  %85 = getelementptr inbounds [32 x ptr], ptr %13, i64 0, i64 0
  %86 = load i32, ptr %16, align 4
  %87 = call i32 @Abc_NtkBddCofCount(ptr noundef %83, ptr noundef %84, ptr noundef %85, i32 noundef %86)
  store i32 %87, ptr %17, align 4
  %88 = load i32, ptr %17, align 4
  %89 = icmp sgt i32 %88, 8
  br i1 %89, label %90, label %91

90:                                               ; preds = %82
  br label %114

91:                                               ; preds = %82
  store i32 0, ptr %15, align 4
  store i32 0, ptr %16, align 4
  br label %92

92:                                               ; preds = %108, %91
  %93 = load i32, ptr %15, align 4
  %94 = load i32, ptr %9, align 4
  %95 = icmp slt i32 %93, %94
  br i1 %95, label %96, label %111

96:                                               ; preds = %92
  %97 = load i32, ptr %14, align 4
  %98 = load i32, ptr %15, align 4
  %99 = shl i32 1, %98
  %100 = and i32 %97, %99
  %101 = icmp eq i32 %100, 0
  br i1 %101, label %102, label %104

102:                                              ; preds = %96
  %103 = call i32 (ptr, ...) @printf(ptr noundef @.str.9)
  br label %108

104:                                              ; preds = %96
  %105 = load i32, ptr %15, align 4
  %106 = add nsw i32 %105, 97
  %107 = call i32 (ptr, ...) @printf(ptr noundef @.str, i32 noundef %106)
  br label %108

108:                                              ; preds = %104, %102
  %109 = load i32, ptr %15, align 4
  %110 = add nsw i32 %109, 1
  store i32 %110, ptr %15, align 4
  br label %92, !llvm.loop !45

111:                                              ; preds = %92
  %112 = load i32, ptr %17, align 4
  %113 = call i32 (ptr, ...) @printf(ptr noundef @.str.10, i32 noundef %112)
  br label %114

114:                                              ; preds = %111, %90, %54
  %115 = load i32, ptr %14, align 4
  %116 = add nsw i32 %115, 1
  store i32 %116, ptr %14, align 4
  br label %33, !llvm.loop !46

117:                                              ; preds = %33
  %118 = load ptr, ptr %11, align 8
  %119 = load ptr, ptr %12, align 8
  call void @Cudd_RecursiveDeref(ptr noundef %118, ptr noundef %119)
  %120 = load ptr, ptr %11, align 8
  call void @Extra_StopManager(ptr noundef %120)
  ret void
}