; Function Attrs: nounwind uwtable
define void @Abc_NtkExploreCofs(ptr noundef %0, ptr noundef %1, ptr readnone captures(none) %2, i32 noundef %3, i32 noundef %4) local_unnamed_addr #0 {
  %6 = alloca [32 x ptr], align 16
  %7 = getelementptr inbounds nuw i8, ptr %0, i64 136
  %8 = load i32, ptr %7, align 8
  %9 = tail call ptr @Cudd_Init(i32 noundef %8, i32 noundef 0, i32 noundef 256, i32 noundef 262144, i64 noundef 0) #18
  %10 = getelementptr inbounds nuw i8, ptr %0, i64 328
  %11 = load ptr, ptr %10, align 8
  %12 = tail call i32 @Cudd_ShuffleHeap(ptr noundef %9, ptr noundef %11) #18
  %13 = tail call ptr @Cudd_bddTransfer(ptr noundef %0, ptr noundef %9, ptr noundef %1) #18
  tail call void @Cudd_Ref(ptr noundef %13) #18
  %.not59 = icmp eq i32 %3, 31
  br i1 %.not59, label %._crit_edge58, label %.lr.ph57

.lr.ph57:                                         ; preds = %5
  %14 = shl nuw nsw i32 1, %3
  %15 = add nsw i32 %4, -1
  %16 = add nsw i32 %4, -2
  %17 = icmp sgt i32 %3, 0
  %18 = getelementptr inbounds nuw i8, ptr %9, i64 344
  %wide.trip.count = zext nneg i32 %3 to i64
  br label %19

19:                                               ; preds = %.lr.ph57, %62
  %.055 = phi i32 [ 0, %.lr.ph57 ], [ %63, %62 ]
  %20 = and i32 %.055, 1431655765
  %21 = lshr i32 %.055, 1
  %22 = and i32 %21, 357913941
  %23 = add nuw nsw i32 %22, %20
  %24 = and i32 %23, 858993459
  %25 = lshr i32 %23, 2
  %26 = and i32 %25, 322122547
  %27 = add nuw nsw i32 %26, %24
  %28 = and i32 %27, 117901063
  %29 = lshr i32 %27, 4
  %30 = and i32 %29, 117901063
  %31 = add nuw nsw i32 %30, %28
  %32 = and i32 %31, 983055
  %33 = lshr i32 %31, 8
  %34 = and i32 %33, 983055
  %35 = add nuw nsw i32 %34, %32
  %36 = and i32 %35, 31
  %37 = lshr i32 %35, 16
  %38 = add nuw nsw i32 %36, %37
  %.not = icmp eq i32 %38, %4
  %.not45 = icmp eq i32 %38, %15
  %or.cond = select i1 %.not, i1 true, i1 %.not45
  %.not46 = icmp eq i32 %38, %16
  %or.cond48 = select i1 %or.cond, i1 true, i1 %.not46
  br i1 %or.cond48, label %.preheader49, label %62

.preheader49:                                     ; preds = %19
  br i1 %17, label %.lr.ph, label %._crit_edge.thread

.lr.ph:                                           ; preds = %.preheader49, %50
  %indvars.iv = phi i64 [ %indvars.iv.next, %50 ], [ 0, %.preheader49 ]
  %.03950 = phi i32 [ %.140, %50 ], [ 0, %.preheader49 ]
  %39 = trunc nuw nsw i64 %indvars.iv to i32
  %40 = shl nuw i32 1, %39
  %41 = and i32 %40, %.055
  %42 = icmp eq i32 %41, 0
  br i1 %42, label %50, label %43

43:                                               ; preds = %.lr.ph
  %44 = load ptr, ptr %18, align 8
  %45 = getelementptr inbounds nuw ptr, ptr %44, i64 %indvars.iv
  %46 = load ptr, ptr %45, align 8
  %47 = add nsw i32 %.03950, 1
  %48 = sext i32 %.03950 to i64
  %49 = getelementptr inbounds [32 x ptr], ptr %6, i64 0, i64 %48
  store ptr %46, ptr %49, align 8
  br label %50

50:                                               ; preds = %.lr.ph, %43
  %.140 = phi i32 [ %.03950, %.lr.ph ], [ %47, %43 ]
  %indvars.iv.next = add nuw nsw i64 %indvars.iv, 1
  %exitcond.not = icmp eq i64 %indvars.iv.next, %wide.trip.count
  br i1 %exitcond.not, label %._crit_edge, label %.lr.ph, !llvm.loop !40

._crit_edge:                                      ; preds = %50
  %51 = call i32 @Abc_NtkBddCofCount(ptr noundef %9, ptr noundef %13, ptr noundef nonnull %6, i32 noundef %.140)
  %52 = icmp sgt i32 %51, 8
  br i1 %52, label %62, label %.lr.ph53

._crit_edge.thread:                               ; preds = %.preheader49
  %53 = call i32 @Abc_NtkBddCofCount(ptr noundef %9, ptr noundef %13, ptr noundef nonnull %6, i32 noundef 0)
  %54 = icmp sgt i32 %53, 8
  br i1 %54, label %62, label %._crit_edge54

.lr.ph53:                                         ; preds = %._crit_edge, %.lr.ph53
  %.152 = phi i32 [ %59, %.lr.ph53 ], [ 0, %._crit_edge ]
  %55 = shl nuw i32 1, %.152
  %56 = and i32 %55, %.055
  %57 = icmp eq i32 %56, 0
  %58 = add nuw nsw i32 %.152, 97
  %.sink = select i1 %57, i32 45, i32 %58
  %putchar = call i32 @putchar(i32 %.sink)
  %59 = add nuw nsw i32 %.152, 1
  %exitcond61.not = icmp eq i32 %59, %3
  br i1 %exitcond61.not, label %._crit_edge54, label %.lr.ph53, !llvm.loop !41

._crit_edge54:                                    ; preds = %.lr.ph53, %._crit_edge.thread
  %60 = phi i32 [ %53, %._crit_edge.thread ], [ %51, %.lr.ph53 ]
  %61 = call i32 (ptr, ...) @printf(ptr noundef nonnull dereferenceable(1) @.str.10, i32 noundef %60)
  br label %62

62:                                               ; preds = %._crit_edge.thread, %19, %._crit_edge, %._crit_edge54
  %63 = add nuw nsw i32 %.055, 1
  %exitcond62.not = icmp eq i32 %63, %14
  br i1 %exitcond62.not, label %._crit_edge58, label %19, !llvm.loop !42

._crit_edge58:                                    ; preds = %62, %5
  call void @Cudd_RecursiveDeref(ptr noundef %9, ptr noundef %13) #18
  call void @Extra_StopManager(ptr noundef %9) #18
  ret void
}